target datalayout = "e-m:e-p270:32:32-p271:32:32-p272:64:64-i64:64-i128:128-f80:128-n8:16:32:64-S128"
target triple = "x86_64-pc-linux-gnu"

%"struct.PairingHeap<MergeCandidateKey>::Node" = type { %"struct.PairingHeap<MergeCandidateKey>::Link", %"struct.PairingHeap<MergeCandidateKey>::Link", ptr, %struct.MergeCandidateKey }
%"struct.PairingHeap<MergeCandidateKey>::Link" = type { ptr }
%struct.MergeCandidateKey = type { i64, i32 }
%class.SiblingMC = type { %class.MergeCandidate, ptr, ptr, %class.V3ListLinks, %class.V3ListLinks }
%class.MergeCandidate = type { %"struct.PairingHeap<MergeCandidateKey>::Node" }
%class.V3ListLinks = type { ptr, ptr }
%class.V3GraphEdge = type { ptr, %class.V3ListLinks.0, %class.V3ListLinks.0, ptr, ptr, i32, i8, %union.anon }
%class.V3ListLinks.0 = type { ptr, ptr }
%union.anon = type { ptr }

@_ZZN10LogicMTask13incGenerationEvE12s_generation = linkonce_odr dso_local global i64 0, comdat, align 8

; Function Attrs: mustprogress nounwind uwtable
define linkonce_odr dso_local noundef ptr @_ZNK11V3GraphEdge3topEv(ptr noundef nonnull align 8 dereferenceable(72) %0) #5 comdat align 2 {
  %2 = alloca ptr, align 8
  store ptr %0, ptr %2, align 8
  %3 = load ptr, ptr %2, align 8
  %4 = getelementptr inbounds %class.V3GraphEdge, ptr %3, i32 0, i32 4
  %5 = load ptr, ptr %4, align 8
  ret ptr %5
}

; Function Attrs: mustprogress nounwind uwtable
define linkonce_odr dso_local noundef ptr @_ZNK11V3GraphEdge5frompEv(ptr noundef nonnull align 8 dereferenceable(72) %0) #5 comdat align 2 {
  %2 = alloca ptr, align 8
  store ptr %0, ptr %2, align 8
  %3 = load ptr, ptr %2, align 8
  %4 = getelementptr inbounds %class.V3GraphEdge, ptr %3, i32 0, i32 3
  %5 = load ptr, ptr %4, align 8
  ret ptr %5
}

; Function Attrs: mustprogress nounwind uwtable
define linkonce_odr dso_local noundef i64 @_ZN10LogicMTask13incGenerationEv() #5 comdat align 2 {
  %1 = load i64, ptr @_ZZN10LogicMTask13incGenerationEvE12s_generation, align 8
  %2 = add i64 %1, 1
  store i64 %2, ptr @_ZZN10LogicMTask13incGenerationEvE12s_generation, align 8
  %3 = load i64, ptr @_ZZN10LogicMTask13incGenerationEvE12s_generation, align 8
  ret i64 %3
}

; Function Attrs: mustprogress uwtable
define linkonce_odr dso_local noundef ptr @_ZNK9MTaskEdge8toMTaskpEv(ptr noundef nonnull align 8 dereferenceable(192) %0) #4 comdat align 2 {
  %2 = alloca ptr, align 8
  store ptr %0, ptr %2, align 8
  %3 = load ptr, ptr %2, align 8
  %4 = call noundef ptr @_ZNK11V3GraphEdge3topEv(ptr noundef nonnull align 8 dereferenceable(72) %3)
  ret ptr %4
}

; Function Attrs: mustprogress uwtable
define linkonce_odr dso_local noundef ptr @_ZNK9MTaskEdge10fromMTaskpEv(ptr noundef nonnull align 8 dereferenceable(192) %0) #4 comdat align 2 {
  %2 = alloca ptr, align 8
  store ptr %0, ptr %2, align 8
  %3 = load ptr, ptr %2, align 8
  %4 = call noundef ptr @_ZNK11V3GraphEdge5frompEv(ptr noundef nonnull align 8 dereferenceable(72) %3)
  ret ptr %4
}

; Function Attrs: mustprogress uwtable
define linkonce_odr dso_local noundef zeroext i1 @_ZN10LogicMTask14pathExistsFromEPS_S0_PK11V3GraphEdge(ptr noundef %0, ptr noundef %1, ptr noundef %2) #4 comdat align 2 {
  %4 = alloca ptr, align 8
  %5 = alloca ptr, align 8
  %6 = alloca ptr, align 8
  store ptr %0, ptr %4, align 8
  store ptr %1, ptr %5, align 8
  store ptr %2, ptr %6, align 8
  %7 = load ptr, ptr %4, align 8
  %8 = load ptr, ptr %5, align 8
  %9 = load ptr, ptr %6, align 8
  %10 = call noundef i64 @_ZN10LogicMTask13incGenerationEv()
  %11 = call noundef zeroext i1 @_ZN10LogicMTask22pathExistsFromInternalEPS_S0_PK11V3GraphEdgem(ptr noundef %7, ptr noundef %8, ptr noundef %9, i64 noundef %10)
  ret i1 %11
}

; Function Attrs: mustprogress uwtable
define dso_local noundef zeroext i1 @_ZNK9MTaskEdge21mergeWouldCreateCycleEv(ptr noundef nonnull align 8 dereferenceable(192) %0) #4 align 2 {
  %2 = alloca ptr, align 8
  store ptr %0, ptr %2, align 8
  %3 = load ptr, ptr %2, align 8
  %4 = call noundef ptr @_ZNK9MTaskEdge10fromMTaskpEv(ptr noundef nonnull align 8 dereferenceable(192) %3)
  %5 = call noundef ptr @_ZNK9MTaskEdge8toMTaskpEv(ptr noundef nonnull align 8 dereferenceable(192) %3)
  %6 = call noundef zeroext i1 @_ZN10LogicMTask14pathExistsFromEPS_S0_PK11V3GraphEdge(ptr noundef %4, ptr noundef %5, ptr noundef %3)
  ret i1 %6
}

; Function Attrs: mustprogress uwtable
define dso_local noundef zeroext i1 @_ZNK9SiblingMC21mergeWouldCreateCycleEv(ptr noundef nonnull align 8 dereferenceable(88) %0) #4 align 2 {
  %2 = alloca ptr, align 8
  store ptr %0, ptr %2, align 8
  %3 = load ptr, ptr %2, align 8
  %4 = getelementptr inbounds %class.SiblingMC, ptr %3, i32 0, i32 1
  %5 = load ptr, ptr %4, align 8
  %6 = getelementptr inbounds %class.SiblingMC, ptr %3, i32 0, i32 2
  %7 = load ptr, ptr %6, align 8
  %8 = call noundef zeroext i1 @_ZN10LogicMTask14pathExistsFromEPS_S0_PK11V3GraphEdge(ptr noundef %5, ptr noundef %7, ptr noundef null)
  br i1 %8, label %15, label %9

9:                                                ; preds = %1
  %10 = getelementptr inbounds %class.SiblingMC, ptr %3, i32 0, i32 2
  %11 = load ptr, ptr %10, align 8
  %12 = getelementptr inbounds %class.SiblingMC, ptr %3, i32 0, i32 1
  %13 = load ptr, ptr %12, align 8
  %14 = call noundef zeroext i1 @_ZN10LogicMTask14pathExistsFromEPS_S0_PK11V3GraphEdge(ptr noundef %11, ptr noundef %13, ptr noundef null)
  br label %15

15:                                               ; preds = %9, %1
  %16 = phi i1 [ true, %1 ], [ %14, %9 ]
  ret i1 %16
}

; Function Attrs: mustprogress nounwind uwtable
define linkonce_odr dso_local noundef zeroext i1 @_ZNK14MergeCandidate11isSiblingMCEv(ptr noundef nonnull align 8 dereferenceable(40) %0) #5 comdat align 2 {
  %2 = alloca ptr, align 8
  store ptr %0, ptr %2, align 8
  %3 = load ptr, ptr %2, align 8
  %4 = getelementptr inbounds %"struct.PairingHeap<MergeCandidateKey>::Node", ptr %3, i32 0, i32 3
  %5 = getelementptr inbounds %struct.MergeCandidateKey, ptr %4, i32 0, i32 0
  %6 = load i64, ptr %5, align 8
  %7 = and i64 %6, 1
  %8 = icmp ne i64 %7, 0
  ret i1 %8
}

; Function Attrs: mustprogress uwtable
define dso_local noundef zeroext i1 @_ZNK14MergeCandidate21mergeWouldCreateCycleEv(ptr noundef nonnull align 8 dereferenceable(40) %0) #4 align 2 {
  %2 = alloca ptr, align 8
  store ptr %0, ptr %2, align 8
  %3 = load ptr, ptr %2, align 8
  %4 = call noundef zeroext i1 @_ZNK14MergeCandidate11isSiblingMCEv(ptr noundef nonnull align 8 dereferenceable(40) %3)
  br i1 %4, label %5, label %7

5:                                                ; preds = %1
  %6 = call noundef zeroext i1 @_ZNK9SiblingMC21mergeWouldCreateCycleEv(ptr noundef nonnull align 8 dereferenceable(88) %3)
  br label %10

7:                                                ; preds = %1
  %8 = getelementptr inbounds i8, ptr %3, i64 -72
  %9 = call noundef zeroext i1 @_ZNK9MTaskEdge21mergeWouldCreateCycleEv(ptr noundef nonnull align 8 dereferenceable(192) %8)
  br label %10

10:                                               ; preds = %7, %5
  %11 = phi i1 [ %6, %5 ], [ %9, %7 ]
  ret i1 %11
}