; Function Attrs: mustprogress uwtable
define dso_local noundef zeroext i1 @_ZNK14MergeCandidate21mergeWouldCreateCycleEv(ptr noundef nonnull align 8 dereferenceable(40) %0) local_unnamed_addr #4 align 2 {
  %2 = getelementptr inbounds i8, ptr %0, i64 24
  %3 = load i64, ptr %2, align 8
  %4 = and i64 %3, 1
  %.not = icmp eq i64 %4, 0
  br i1 %.not, label %19, label %5

5:                                                ; preds = %1
  %6 = getelementptr inbounds i8, ptr %0, i64 40
  %7 = load ptr, ptr %6, align 8
  %8 = getelementptr inbounds i8, ptr %0, i64 48
  %9 = load ptr, ptr %8, align 8
  %10 = load i64, ptr @_ZZN10LogicMTask13incGenerationEvE12s_generation, align 8
  %11 = add i64 %10, 1
  store i64 %11, ptr @_ZZN10LogicMTask13incGenerationEvE12s_generation, align 8
  %12 = tail call noundef zeroext i1 @_ZN10LogicMTask22pathExistsFromInternalEPS_S0_PK11V3GraphEdgem(ptr noundef %7, ptr noundef %9, ptr noundef null, i64 noundef %11)
  br i1 %12, label %_ZNK9SiblingMC21mergeWouldCreateCycleEv.exit, label %13

13:                                               ; preds = %5
  %14 = load ptr, ptr %8, align 8
  %15 = load ptr, ptr %6, align 8
  %16 = load i64, ptr @_ZZN10LogicMTask13incGenerationEvE12s_generation, align 8
  %17 = add i64 %16, 1
  store i64 %17, ptr @_ZZN10LogicMTask13incGenerationEvE12s_generation, align 8
  %18 = tail call noundef zeroext i1 @_ZN10LogicMTask22pathExistsFromInternalEPS_S0_PK11V3GraphEdgem(ptr noundef %14, ptr noundef %15, ptr noundef null, i64 noundef %17)
  br label %_ZNK9SiblingMC21mergeWouldCreateCycleEv.exit

19:                                               ; preds = %1
  %20 = getelementptr inbounds i8, ptr %0, i64 -72
  %21 = getelementptr inbounds i8, ptr %0, i64 -32
  %22 = load ptr, ptr %21, align 8
  %23 = getelementptr inbounds i8, ptr %0, i64 -24
  %24 = load ptr, ptr %23, align 8
  %25 = load i64, ptr @_ZZN10LogicMTask13incGenerationEvE12s_generation, align 8
  %26 = add i64 %25, 1
  store i64 %26, ptr @_ZZN10LogicMTask13incGenerationEvE12s_generation, align 8
  %27 = tail call noundef zeroext i1 @_ZN10LogicMTask22pathExistsFromInternalEPS_S0_PK11V3GraphEdgem(ptr noundef %22, ptr noundef %24, ptr noundef nonnull %20, i64 noundef %26)
  br label %_ZNK9SiblingMC21mergeWouldCreateCycleEv.exit

_ZNK9SiblingMC21mergeWouldCreateCycleEv.exit:     ; preds = %13, %5, %19
  %28 = phi i1 [ %27, %19 ], [ true, %5 ], [ %18, %13 ]
  ret i1 %28
}